target datalayout = "e-m:e-p270:32:32-p271:32:32-p272:64:64-i64:64-i128:128-f80:128-n8:16:32:64-S128"
target triple = "x86_64-pc-linux-gnu"

%"class.duckdb::DataChunk" = type { %"class.duckdb::vector.741", i64, i64, %"class.duckdb::vector.747" }
%"class.duckdb::vector.741" = type { %"class.std::vector.742" }
%"class.std::vector.742" = type { %"struct.std::_Vector_base.743" }
%"struct.std::_Vector_base.743" = type { %"struct.std::_Vector_base<duckdb::Vector, std::allocator<duckdb::Vector>>::_Vector_impl" }
%"struct.std::_Vector_base<duckdb::Vector, std::allocator<duckdb::Vector>>::_Vector_impl" = type { %"struct.std::_Vector_base<duckdb::Vector, std::allocator<duckdb::Vector>>::_Vector_impl_data" }
%"struct.std::_Vector_base<duckdb::Vector, std::allocator<duckdb::Vector>>::_Vector_impl_data" = type { ptr, ptr, ptr }
%"class.duckdb::vector.747" = type { %"class.std::vector.748" }
%"class.std::vector.748" = type { %"struct.std::_Vector_base.749" }
%"struct.std::_Vector_base.749" = type { %"struct.std::_Vector_base<duckdb::VectorCache, std::allocator<duckdb::VectorCache>>::_Vector_impl" }
%"struct.std::_Vector_base<duckdb::VectorCache, std::allocator<duckdb::VectorCache>>::_Vector_impl" = type { %"struct.std::_Vector_base<duckdb::VectorCache, std::allocator<duckdb::VectorCache>>::_Vector_impl_data" }
%"struct.std::_Vector_base<duckdb::VectorCache, std::allocator<duckdb::VectorCache>>::_Vector_impl_data" = type { ptr, ptr, ptr }

; Function Attrs: inlinehint mustprogress nounwind uwtable
define linkonce_odr noundef i64 @_ZNK6duckdb9DataChunk4sizeEv(ptr noundef nonnull align 8 dereferenceable(64) %0) #7 comdat align 2 {
  %2 = alloca ptr, align 8
  store ptr %0, ptr %2, align 8, !tbaa !728
  %3 = load ptr, ptr %2, align 8
  %4 = getelementptr inbounds nuw %"class.duckdb::DataChunk", ptr %3, i32 0, i32 1
  %5 = load i64, ptr %4, align 8, !tbaa !750
  ret i64 %5
}

; Function Attrs: mustprogress uwtable
define void @_ZN6duckdb13ParquetReader4ScanERNS_22ParquetReaderScanStateERNS_9DataChunkE(ptr noundef nonnull align 8 dereferenceable(560) %0, ptr noundef nonnull align 8 dereferenceable(232) %1, ptr noundef nonnull align 8 dereferenceable(64) %2) #4 align 2 {
  %4 = alloca ptr, align 8
  %5 = alloca ptr, align 8
  %6 = alloca ptr, align 8
  store ptr %0, ptr %4, align 8, !tbaa !3
  store ptr %1, ptr %5, align 8, !tbaa !560
  store ptr %2, ptr %6, align 8, !tbaa !728
  %7 = load ptr, ptr %4, align 8
  br label %8

8:                                                ; preds = %17, %3
  %9 = load ptr, ptr %5, align 8, !tbaa !560
  %10 = load ptr, ptr %6, align 8, !tbaa !728
  %11 = call noundef zeroext i1 @_ZN6duckdb13ParquetReader12ScanInternalERNS_22ParquetReaderScanStateERNS_9DataChunkE(ptr noundef nonnull align 8 dereferenceable(560) %7, ptr noundef nonnull align 8 dereferenceable(232) %9, ptr noundef nonnull align 8 dereferenceable(64) %10)
  br i1 %11, label %12, label %19

12:                                               ; preds = %8
  %13 = load ptr, ptr %6, align 8, !tbaa !728
  %14 = call noundef i64 @_ZNK6duckdb9DataChunk4sizeEv(ptr noundef nonnull align 8 dereferenceable(64) %13)
  %15 = icmp ugt i64 %14, 0
  br i1 %15, label %16, label %17

16:                                               ; preds = %12
  br label %19

17:                                               ; preds = %12
  %18 = load ptr, ptr %6, align 8, !tbaa !728
  call void @_ZN6duckdb9DataChunk5ResetEv(ptr noundef nonnull align 8 dereferenceable(64) %18)
  br label %8, !llvm.loop !730

19:                                               ; preds = %16, %8
  ret void
}