; Function Attrs: mustprogress uwtable
define void @_ZN6duckdb13ParquetReader4ScanERNS_22ParquetReaderScanStateERNS_9DataChunkE(ptr noundef nonnull align 8 dereferenceable(560) %0, ptr noundef nonnull align 8 dereferenceable(232) %1, ptr noundef nonnull align 8 dereferenceable(64) %2) local_unnamed_addr #3 align 2 {
  %4 = tail call noundef zeroext i1 @_ZN6duckdb13ParquetReader12ScanInternalERNS_22ParquetReaderScanStateERNS_9DataChunkE(ptr noundef nonnull align 8 dereferenceable(560) %0, ptr noundef nonnull align 8 dereferenceable(232) %1, ptr noundef nonnull align 8 dereferenceable(64) %2)
  %5 = getelementptr inbounds nuw i8, ptr %2, i64 24
  %6 = load i64, ptr %5, align 8
  %.not6 = icmp eq i64 %6, 0
  %or.cond7 = select i1 %4, i1 %.not6, i1 false
  br i1 %or.cond7, label %.lr.ph, label %._crit_edge

.lr.ph:                                           ; preds = %3, %.lr.ph
  tail call void @_ZN6duckdb9DataChunk5ResetEv(ptr noundef nonnull align 8 dereferenceable(64) %2)
  %7 = tail call noundef zeroext i1 @_ZN6duckdb13ParquetReader12ScanInternalERNS_22ParquetReaderScanStateERNS_9DataChunkE(ptr noundef nonnull align 8 dereferenceable(560) %0, ptr noundef nonnull align 8 dereferenceable(232) %1, ptr noundef nonnull align 8 dereferenceable(64) %2)
  %8 = load i64, ptr %5, align 8
  %.not = icmp eq i64 %8, 0
  %or.cond = select i1 %7, i1 %.not, i1 false
  br i1 %or.cond, label %.lr.ph, label %._crit_edge, !llvm.loop !714

._crit_edge:                                      ; preds = %.lr.ph, %3
  ret void
}